; Function Attrs: mustprogress uwtable
define void @_ZN18duckdb_fastpforlib8internal14__fastunpack27EPKjPj(ptr noalias noundef %0, ptr noalias noundef initializes((0, 16)) %1) local_unnamed_addr #5 {
  %3 = alloca ptr, align 8
  tail call void @llvm.experimental.noalias.scope.decl(metadata !4603)
  tail call void @llvm.experimental.noalias.scope.decl(metadata !4606)
  tail call void @llvm.experimental.noalias.scope.decl(metadata !4609)
  %4 = load i32, ptr %0, align 4, !tbaa !7, !alias.scope !4606, !noalias !4611
  %5 = and i32 %4, 134217727
  store i32 %5, ptr %1, align 4, !tbaa !7, !alias.scope !4611, !noalias !4606
  tail call void @llvm.experimental.noalias.scope.decl(metadata !4612)
  %6 = getelementptr inbounds nuw i8, ptr %1, i64 4
  tail call void @llvm.experimental.noalias.scope.decl(metadata !4615)
  %7 = lshr i32 %4, 27
  %8 = getelementptr inbounds nuw i8, ptr %0, i64 4
  %9 = load i32, ptr %8, align 4, !tbaa !7, !noalias !4618
  %10 = shl i32 %9, 5
  %11 = and i32 %10, 134217696
  %12 = or disjoint i32 %11, %7
  store i32 %12, ptr %6, align 4, !tbaa !7, !alias.scope !4618
  tail call void @llvm.experimental.noalias.scope.decl(metadata !4619)
  %13 = getelementptr inbounds nuw i8, ptr %1, i64 8
  tail call void @llvm.experimental.noalias.scope.decl(metadata !4622)
  %14 = lshr i32 %9, 22
  %15 = getelementptr inbounds nuw i8, ptr %0, i64 8
  %16 = load i32, ptr %15, align 4, !tbaa !7, !noalias !4625
  %17 = shl i32 %16, 10
  %18 = and i32 %17, 134216704
  %19 = or disjoint i32 %18, %14
  store i32 %19, ptr %13, align 4, !tbaa !7, !alias.scope !4625
  tail call void @llvm.experimental.noalias.scope.decl(metadata !4626)
  %20 = getelementptr inbounds nuw i8, ptr %1, i64 12
  tail call void @llvm.experimental.noalias.scope.decl(metadata !4629)
  %21 = lshr i32 %16, 17
  %22 = getelementptr inbounds nuw i8, ptr %0, i64 12
  store ptr %22, ptr %3, align 8, !tbaa !1879, !noalias !4632
  %23 = load i32, ptr %22, align 4, !tbaa !7, !noalias !4632
  %24 = shl i32 %23, 15
  %25 = and i32 %24, 134184960
  %26 = or disjoint i32 %25, %21
  store i32 %26, ptr %20, align 4, !tbaa !7, !alias.scope !4632
  call void @_ZN18duckdb_fastpforlib8internal8UnrollerILt27ELt4EE6UnpackERrPKjPj(ptr noundef nonnull align 8 dereferenceable(8) %3, ptr noundef nonnull %1)
  ret void
}